Certificate:
    Data:
        Version: 3 (0x2)
        Serial Number: 1 (0x1)
    Signature Algorithm: sha256WithRSAEncryption
        Issuer: CN=Root CA, O=Development VM, C=FR
        Validity
            Not Before: Apr 18 11:39:05 2018 GMT
            Not After : Apr 17 11:39:05 2021 GMT
        Subject: C=FR, O=Development VM, CN=www.example.com
        Subject Public Key Info:
            Public Key Algorithm: rsaEncryption
                Public-Key: (2048 bit)
                Modulus:
                    00:d1:9f:10:da:b5:6f:69:2e:ad:54:41:4a:a7:cd:
                    b8:24:ba:d5:34:2d:b2:0d:4e:fd:7b:51:34:b7:29:
                    47:2d:c6:54:82:ac:87:93:bb:a3:6b:c2:66:12:0b:
                    db:0e:f5:89:6f:0d:4a:08:96:e6:84:e5:52:ca:4b:
                    7a:c9:8b:cd:a8:c7:18:c7:3f:f4:1b:52:80:36:08:
                    9b:be:57:2c:0b:54:e3:20:32:80:f6:42:8b:a3:14:
                    e0:87:8b:b9:b2:e6:a6:bc:ba:72:8b:a0:ef:98:a5:
                    b2:dc:d7:bc:10:f3:f6:19:5f:dc:9d:9b:e2:f3:59:
                    f4:ad:e4:bc:bb:c5:d3:72:37:56:77:42:b2:bf:a2:
                    9e:00:89:91:f5:68:f1:67:50:49:cc:0b:e6:6b:6d:
                    c5:61:6c:0f:97:11:91:04:56:d6:6d:6c:ed:bb:98:
                    70:4c:51:b4:98:09:a7:fc:bd:0c:93:45:4a:c8:09:
                    e6:28:3d:b8:1a:fe:08:35:b0:3c:7c:02:41:20:1b:
                    24:8f:ce:43:2b:f9:06:e0:fa:24:30:dc:10:0b:47:
                    2a:99:d3:10:21:ec:0b:bc:44:fe:7d:02:13:d6:d9:
                    d3:51:3b:b7:84:4c:bb:92:62:ab:78:09:fe:78:3d:
                    31:c8:2e:d2:e9:f1:bd:9a:4a:0b:92:2e:5a:00:1e:
                    aa:c9
                Exponent: 65537 (0x10001)
        X509v3 extensions:
            X509v3 Subject Key Identifier: 
                98:09:78:1F:5E:20:A2:87:0D:AF:3A:8C:B4:CA:42:9C:53:2A:B1:D1
            X509v3 Authority Key Identifier: 
                keyid:3B:A3:B2:35:AE:7D:63:2D:08:7C:5D:46:9C:39:B0:93:48:ED:93:9E
                DirName:/CN=Root CA/O=Development VM/C=FR
                serial:00

            X509v3 Basic Constraints: critical
                CA:FALSE, pathlen:0
            X509v3 Key Usage: critical
                Digital Signature, Key Encipherment
            X509v3 Extended Key Usage: critical
                TLS Web Server Authentication
    Signature Algorithm: sha256WithRSAEncryption
         1b:f2:6b:2c:38:59:da:ec:f1:cc:8b:57:59:7a:da:7f:9f:3a:
         76:d8:11:34:81:b9:16:06:f9:d1:32:ee:2f:d5:0e:94:fd:f9:
         91:5d:17:85:d2:e3:b5:2e:b4:f4:49:66:df:e2:f1:c2:cc:7d:
         3c:8b:50:ce:ae:a6:05:3d:60:54:55:89:5e:80:47:ab:33:2f:
         58:8d:cd:f4:de:2a:ce:84:a7:e7:67:38:b1:a3:ad:de:e7:a1:
         aa:e8:d6:67:21:d0:19:83:65:e1:f3:c0:29:e0:cb:d8:7c:86:
         1f:9d:5f:4e:29:6d:f4:41:f4:3e:10:38:5e:f6:f8:87:1d:3e:
         6d:9a:91:58:b6:50:56:d9:ac:1e:2a:b5:b8:1b:5d:7e:06:d9:
         1f:2a:47:e2:31:86:54:1b:b6:7c:55:7f:c6:86:76:99:fa:dc:
         86:b7:8b:16:e3:f1:9c:94:e2:4f:43:9f:f3:4a:8c:5f:4c:bd:
         1d:de:73:82:a2:32:04:55:1d:c0:1f:4c:50:ef:81:98:10:ad:
         08:55:bf:cb:31:a2:00:41:cf:5e:23:86:6d:1e:55:b6:c2:ca:
         7b:1c:cd:d4:93:84:de:ad:71:ba:5d:d5:cf:98:0c:ca:3b:aa:
         e9:99:20:22:2a:4e:93:9c:80:20:32:4a:1d:ed:bc:03:a5:3c:
         ee:b4:1f:8e:cc:4f:fe:de:e1:e6:62:4d:f7:a1:a4:56:8f:dd:
         a6:8b:47:73:e4:8f:4a:75:09:8c:0d:aa:3e:d9:c4:32:b8:cf:
         75:de:19:54:05:bf:14:a1:e2:32:60:e6:d0:df:b0:27:99:02:
         90:e5:5e:19:b2:70:3f:ea:7b:c4:de:50:56:18:df:ae:d3:d5:
         50:9d:5d:38:ee:0f:5c:d3:7a:57:b0:40:b5:49:aa:2d:8b:d8:
         6b:7f:47:6d:83:92:20:3d:a2:52:37:50:c7:a2:3c:6c:55:48:
         45:f1:5b:d7:ea:0b:12:41:d6:39:e9:21:e0:a0:92:81:59:c5:
         6e:cb:5f:46:b2:38:ce:8b:eb:a2:a3:93:75:13:bb:6b:c0:64:
         f2:66:7f:1b:73:a2:21:4d:99:30:3a:f3:f4:3a:d1:88:ce:24:
         1a:50:9d:3f:ac:4d:ab:6c:5d:b8:1b:3e:16:b3:ea:ef:e6:d5:
         5c:9f:3d:87:a2:a4:01:e8:60:3e:10:e9:0b:77:8a:20:43:00:
         ef:e3:b3:e4:22:08:69:11:4c:23:e5:ee:4b:3f:f9:75:17:50:
         cc:a2:9b:20:61:08:99:b0:00:79:9d:95:b8:3a:1a:8d:5f:96:
         c9:a6:ff:8c:21:a3:6a:9a:79:1d:c5:37:c1:1c:d5:d4:84:c9:
         5a:ba:b4:32:6c:67:4c:f8
-----BEGIN CERTIFICATE-----
MIIEsTCCApmgAwIBAgIBATANBgkqhkiG9w0BAQsFADA4MRAwDgYDVQQDDAdSb290
IENBMRcwFQYDVQQKDA5EZXZlbG9wbWVudCBWTTELMAkGA1UEBhMCRlIwHhcNMTgw
NDE4MTEzOTA1WhcNMjEwNDE3MTEzOTA1WjBAMQswCQYDVQQGEwJGUjEXMBUGA1UE
CgwORGV2ZWxvcG1lbnQgVk0xGDAWBgNVBAMMD3d3dy5leGFtcGxlLmNvbTCCASIw
DQYJKoZIhvcNAQEBBQADggEPADCCAQoCggEBANGfENq1b2kurVRBSqfNuCS61TQt
sg1O/XtRNLcpRy3GVIKsh5O7o2vCZhIL2w71iW8NSgiW5oTlUspLesmLzajHGMc/
9BtSgDYIm75XLAtU4yAygPZCi6MU4IeLubLmpry6coug75ilstzXvBDz9hlf3J2b
4vNZ9K3kvLvF03I3VndCsr+ingCJkfVo8WdQScwL5mttxWFsD5cRkQRW1m1s7buY
cExRtJgJp/y9DJNFSsgJ5ig9uBr+CDWwPHwCQSAbJI/OQyv5BuD6JDDcEAtHKpnT
ECHsC7xE/n0CE9bZ01E7t4RMu5Jiq3gJ/ng9Mcgu0unxvZpKC5IuWgAeqskCAwEA
AaOBvTCBujAdBgNVHQ4EFgQUmAl4H14goocNrzqMtMpCnFMqsdEwYAYDVR0jBFkw
V4AUO6OyNa59Yy0IfF1GnDmwk0jtk56hPKQ6MDgxEDAOBgNVBAMMB1Jvb3QgQ0Ex
FzAVBgNVBAoMDkRldmVsb3BtZW50IFZNMQswCQYDVQQGEwJGUoIBADAPBgNVHRMB
Af8EBTADAgEAMA4GA1UdDwEB/wQEAwIFoDAWBgNVHSUBAf8EDDAKBggrBgEFBQcD
ATANBgkqhkiG9w0BAQsFAAOCAgEAG/JrLDhZ2uzxzItXWXraf586dtgRNIG5Fgb5
0TLuL9UOlP35kV0XhdLjtS609Elm3+Lxwsx9PItQzq6mBT1gVFWJXoBHqzMvWI3N
9N4qzoSn52c4saOt3uehqujWZyHQGYNl4fPAKeDL2HyGH51fTilt9EH0PhA4Xvb4
hx0+bZqRWLZQVtmsHiq1uBtdfgbZHypH4jGGVBu2fFV/xoZ2mfrchreLFuPxnJTi
T0Of80qMX0y9Hd5zgqIyBFUdwB9MUO+BmBCtCFW/yzGiAEHPXiOGbR5VtsLKexzN
1JOE3q1xul3Vz5gMyjuq6ZkgIipOk5yAIDJKHe28A6U87rQfjsxP/t7h5mJN96Gk
Vo/dpotHc+SPSnUJjA2qPtnEMrjPdd4ZVAW/FKHiMmDm0N+wJ5kCkOVeGbJwP+p7
xN5QVhjfrtPVUJ1dOO4PXNN6V7BAtUmqLYvYa39HbYOSID2iUjdQx6I8bFVIRfFb
1+oLEkHWOekh4KCSgVnFbstfRrI4zovroqOTdRO7a8Bk8mZ/G3OiIU2ZMDrz9DrR
iM4kGlCdP6xNq2xduBs+FrPq7+bVXJ89h6KkAehgPhDpC3eKIEMA7+Oz5CIIaRFM
I+XuSz/5dRdQzKKbIGEImbAAeZ2VuDoajV+Wyab/jCGjapp5HcU3wRzV1ITJWrq0
MmxnTPg=
-----END CERTIFICATE-----
